-----BEGIN CERTIFICATE-----
MIIF2TCCA8GgAwIBAgIQHp4o6Ejy5e/DfEoeWhhntjANBgkqhkiG9w0BAQsFADBk
MQswCQYDVQQGEwJjaDERMA8GA1UEChMIU3dpc3Njb20xJTAjBgNVBAsTHERpZ2l0
YWwgQ2VydGlmaWNhdGUgU2VydmljZXMxGzAZBgNVBAMTElN3aXNzY29tIFJvb3Qg
Q0EgMjAeFw0xMTA2MjQwODM4MTRaFw0zMTA2MjUwNzM4MTRaMGQxCzAJBgNVBAYT
AmNoMREwDwYDVQQKEwhTd2lzc2NvbTElMCMGA1UECxMcRGlnaXRhbCBDZXJ0aWZp
Y2F0ZSBTZXJ2aWNlczEbMBkGA1UEAxMSU3dpc3Njb20gUm9vdCBDQSAyMIICIjAN
BgkqhkiG9w0BAQEFAAOCAg8AMIICCgKCAgEAlUJOhJ1R5tMJ6HJaI2nbeHCOFvEr
jw0DzpPMLgAIe6szjPTpQOYXTKueuEcUMncy3SgM3hhLX3af+Dk7/E6J2HzFZ++r
0rk0X2s682Q2zsKwzxNoysjL67XiPS4h3+os1OD5cJZM/2pYmLcX5BtS5X4HAB1f
2uY+lQS3aYg5oUFgJWFLlTloYhyxCwWJwDaCFCE/rtuh/bxvHGCGtlOUSbkrRsVP
ACu/obvLP+DHVxxX6NZp+MEkUp2IVd3Chy50I9AU/SpHWrumnf2U5NGKpV+GY3aF
y6//SSj8gO1MedK75MDvAe5QQQg1I3ArqRa0jG6F6bYRzzHdUyYb3y1aSgJA/MTA
tukxGggo5WDDH8SQjhBiYEQN7Aq+VRhxLKX0srwVYv8c474d2h5Xszx+zYIdkeNL
6yxSNLCK/RJOlrDrcH+eOfdmQrGrrFLadkBXeyq96G4DsguAhYidDMfCd7Camlf0
uPoTXGiTOmekl9AbmbeGMktg2M7v0Ax/lZ9vh0+Hio5fCHyqW/xavqGRn1V9TrAL
acywlKinh/LTSlDcX3KwFnUey7QYYpqwpzmqm59m2I2mbJYV4+by+PGDYmy7Velh
k6M99bFXi08jsJvllGov34zflVEpYKELKeRcVVi3qPyZ7iVNTA6z00yPhOgpD/0Q
VAKFyPnlw4vP5w8CAwEAAaOBhjCBgzAOBgNVHQ8BAf8EBAMCAYYwHQYDVR0hBBYw
FDASBgdghXQBUwIBBgdghXQBUwIBMBIGA1UdEwEB/wQIMAYBAf8CAQcwHQYDVR0O
BBYEFE0mICKJS9PVpAqhb97iEoHF8TwuMB8GA1UdIwQYMBaAFE0mICKJS9PVpAqh
b97iEoHF8TwuMA0GCSqGSIb3DQEBCwUAA4ICAQAyCrKkG8t9voJXiblqf/P0wS4R
fbgZPnm3qKhyN2abGu2sEzsOv2LwnN+ee6FTSA5BesogpxcbtnjsQJHzQq0Qw1zv
/2BZf82Fo4s9SBwlAjxnffUy6S8w5X2lejjQ82YqZh6NM4OKb3xuqFp1mrjX2lhI
REeoTPpMSQpKwhI3qEAMw8jh0FcNlzKVxzqfl9NX+Ave5XLzo9v/tdhZsnPdTSpx
srpJ9csc1fV5yJmz/MFMdOO0vSk3FQQoHt5FRnDsr7p4DooqzgB53MBfGWcsa0vv
aGgLQ+OswWIJ76bdZWGgr4RVSJFSHMYlkSrQwSIjYVmvRRGFHQEkNI/Ps/8XciAT
woCqISxxOQ7Qj1zB09GOInJGTB2Wrk9xseEFKZZZ9LuedT3PDTcNYtsmjGOpI99n
Bjx8Oto0QuFmtEYE3saWmA9LSHokMnWRn6z3aOkquVVlzl1h0ydw2Df+n7mvoC5W
t6NlUe07qxS/TFED6F+KBZvuim6c779o+sjaC+NCydAXFJy3SuCvkychVSa1ZC+N
8f+mQAWFBVzKBxlcCxMoTFh/wqXvRdpg065lYZ1Tg3TCrvJcwhbtkj6EPnNgiLx2
9CzP0H1907he0ZESEOnN3col49XtmS++dYFLJPlFRpTJKSFTnCZFqhMX5OfNeOI5
wSsSnqaeG8XmDtkx2Q==
-----END CERTIFICATE-----
Certificate:
    Data:
        Version: 3 (0x2)
        Serial Number:
            1e:9e:28:e8:48:f2:e5:ef:c3:7c:4a:1e:5a:18:67:b6
    Signature Algorithm: sha256WithRSAEncryption
        Issuer: C=ch, O=Swisscom, OU=Digital Certificate Services, CN=Swisscom Root CA 2
        Validity
            Not Before: Jun 24 08:38:14 2011 GMT
            Not After : Jun 25 07:38:14 2031 GMT
        Subject: C=ch, O=Swisscom, OU=Digital Certificate Services, CN=Swisscom Root CA 2
        Subject Public Key Info:
            Public Key Algorithm: rsaEncryption
                Public-Key: (4096 bit)
                Modulus:
                    00:95:42:4e:84:9d:51:e6:d3:09:e8:72:5a:23:69:
                    db:78:70:8e:16:f1:2b:8f:0d:03:ce:93:cc:2e:00:
                    08:7b:ab:33:8c:f4:e9:40:e6:17:4c:ab:9e:b8:47:
                    14:32:77:32:dd:28:0c:de:18:4b:5f:76:9f:f8:39:
                    3b:fc:4e:89:d8:7c:c5:67:ef:ab:d2:b9:34:5f:6b:
                    3a:f3:64:36:ce:c2:b0:cf:13:68:ca:c8:cb:eb:b5:
                    e2:3d:2e:21:df:ea:2c:d4:e0:f9:70:96:4c:ff:6a:
                    58:98:b7:17:e4:1b:52:e5:7e:07:00:1d:5f:da:e6:
                    3e:95:04:b7:69:88:39:a1:41:60:25:61:4b:95:39:
                    68:62:1c:b1:0b:05:89:c0:36:82:14:21:3f:ae:db:
                    a1:fd:bc:6f:1c:60:86:b6:53:94:49:b9:2b:46:c5:
                    4f:00:2b:bf:a1:bb:cb:3f:e0:c7:57:1c:57:e8:d6:
                    69:f8:c1:24:52:9d:88:55:dd:c2:87:2e:74:23:d0:
                    14:fd:2a:47:5a:bb:a6:9d:fd:94:e4:d1:8a:a5:5f:
                    86:63:76:85:cb:af:ff:49:28:fc:80:ed:4c:79:d2:
                    bb:e4:c0:ef:01:ee:50:41:08:35:23:70:2b:a9:16:
                    b4:8c:6e:85:e9:b6:11:cf:31:dd:53:26:1b:df:2d:
                    5a:4a:02:40:fc:c4:c0:b6:e9:31:1a:08:28:e5:60:
                    c3:1f:c4:90:8e:10:62:60:44:0d:ec:0a:be:55:18:
                    71:2c:a5:f4:b2:bc:15:62:ff:1c:e3:be:1d:da:1e:
                    57:b3:3c:7e:cd:82:1d:91:e3:4b:eb:2c:52:34:b0:
                    8a:fd:12:4e:96:b0:eb:70:7f:9e:39:f7:66:42:b1:
                    ab:ac:52:da:76:40:57:7b:2a:bd:e8:6e:03:b2:0b:
                    80:85:88:9d:0c:c7:c2:77:b0:9a:9a:57:f4:b8:fa:
                    13:5c:68:93:3a:67:a4:97:d0:1b:99:b7:86:32:4b:
                    60:d8:ce:ef:d0:0c:7f:95:9f:6f:87:4f:87:8a:8e:
                    5f:08:7c:aa:5b:fc:5a:be:a1:91:9f:55:7d:4e:b0:
                    0b:69:cc:b0:94:a8:a7:87:f2:d3:4a:50:dc:5f:72:
                    b0:16:75:1e:cb:b4:18:62:9a:b0:a7:39:aa:9b:9f:
                    66:d8:8d:a6:6c:96:15:e3:e6:f2:f8:f1:83:62:6c:
                    bb:55:e9:61:93:a3:3d:f5:b1:57:8b:4f:23:b0:9b:
                    e5:94:6a:2f:df:8c:df:95:51:29:60:a1:0b:29:e4:
                    5c:55:58:b7:a8:fc:99:ee:25:4d:4c:0e:b3:d3:4c:
                    8f:84:e8:29:0f:fd:10:54:02:85:c8:f9:e5:c3:8b:
                    cf:e7:0f
                Exponent: 65537 (0x10001)
        X509v3 extensions:
            X509v3 Key Usage: critical
                Digital Signature, Certificate Sign, CRL Sign
            X509v3 Policy Mappings: 
                2.16.756.1.83.2.1:2.16.756.1.83.2.1
            X509v3 Basic Constraints: critical
                CA:TRUE, pathlen:7
            X509v3 Subject Key Identifier: 
                4D:26:20:22:89:4B:D3:D5:A4:0A:A1:6F:DE:E2:12:81:C5:F1:3C:2E
            X509v3 Authority Key Identifier: 
                keyid:4D:26:20:22:89:4B:D3:D5:A4:0A:A1:6F:DE:E2:12:81:C5:F1:3C:2E

    Signature Algorithm: sha256WithRSAEncryption
         32:0a:b2:a4:1b:cb:7d:be:82:57:89:b9:6a:7f:f3:f4:c1:2e:
         11:7d:b8:19:3e:79:b7:a8:a8:72:37:66:9b:1a:ed:ac:13:3b:
         0e:bf:62:f0:9c:df:9e:7b:a1:53:48:0e:41:7a:ca:20:a7:17:
         1b:b6:78:ec:40:91:f3:42:ad:10:c3:5c:ef:ff:60:59:7f:cd:
         85:a3:8b:3d:48:1c:25:02:3c:67:7d:f5:32:e9:2f:30:e5:7d:
         a5:7a:38:d0:f3:66:2a:66:1e:8d:33:83:8a:6f:7c:6e:a8:5a:
         75:9a:b8:d7:da:58:48:44:47:a8:4c:fa:4c:49:0a:4a:c2:12:
         37:a8:40:0c:c3:c8:e1:d0:57:0d:97:32:95:c7:3a:9f:97:d3:
         57:f8:0b:de:e5:72:f3:a3:db:ff:b5:d8:59:b2:73:dd:4d:2a:
         71:b2:ba:49:f5:cb:1c:d5:f5:79:c8:99:b3:fc:c1:4c:74:e3:
         b4:bd:29:37:15:04:28:1e:de:45:46:70:ec:af:ba:78:0e:8a:
         2a:ce:00:79:dc:c0:5f:19:67:2c:6b:4b:ef:68:68:0b:43:e3:
         ac:c1:62:09:ef:a6:dd:65:61:a0:af:84:55:48:91:52:1c:c6:
         25:91:2a:d0:c1:22:23:61:59:af:45:11:85:1d:01:24:34:8f:
         cf:b3:ff:17:72:20:13:c2:80:aa:21:2c:71:39:0e:d0:8f:5c:
         c1:d3:d1:8e:22:72:46:4c:1d:96:ae:4f:71:b1:e1:05:29:96:
         59:f4:bb:9e:75:3d:cf:0d:37:0d:62:db:26:8c:63:a9:23:df:
         67:06:3c:7c:3a:da:34:42:e1:66:b4:46:04:de:c6:96:98:0f:
         4b:48:7a:24:32:75:91:9f:ac:f7:68:e9:2a:b9:55:65:ce:5d:
         61:d3:27:70:d8:37:fe:9f:b9:af:a0:2e:56:b7:a3:65:51:ed:
         3b:ab:14:bf:4c:51:03:e8:5f:8a:05:9b:ee:8a:6e:9c:ef:bf:
         68:fa:c8:da:0b:e3:42:c9:d0:17:14:9c:b7:4a:e0:af:93:27:
         21:55:26:b5:64:2f:8d:f1:ff:a6:40:05:85:05:5c:ca:07:19:
         5c:0b:13:28:4c:58:7f:c2:a5:ef:45:da:60:d3:ae:65:61:9d:
         53:83:74:c2:ae:f2:5c:c2:16:ed:92:3e:84:3e:73:60:88:bc:
         76:f4:2c:cf:d0:7d:7d:d3:b8:5e:d1:91:12:10:e9:cd:dd:ca:
         25:e3:d5:ed:99:2f:be:75:81:4b:24:f9:45:46:94:c9:29:21:
         53:9c:26:45:aa:13:17:e4:e7:cd:78:e2:39:c1:2b:12:9e:a6:
         9e:1b:c5:e6:0e:d9:31:d9
SHA1 Fingerprint=77:47:4F:C6:30:E4:0F:4C:47:64:3F:84:BA:B8:C6:95:4A:8A:41:EC
