-----BEGIN CERTIFICATE-----
MIIFnDCCA4SgAwIBAgIBATANBgkqhkiG9w0BAQUFADBjMQswCQYDVQQGEwJGUjET
MBEGA1UEChMKQ2VydGlub21pczEXMBUGA1UECxMOMDAwMiA0MzM5OTg5MDMxJjAk
BgNVBAMMHUNlcnRpbm9taXMgLSBBdXRvcml0w6kgUmFjaW5lMB4XDTA4MDkxNzA4
Mjg1OVoXDTI4MDkxNzA4Mjg1OVowYzELMAkGA1UEBhMCRlIxEzARBgNVBAoTCkNl
cnRpbm9taXMxFzAVBgNVBAsTDjAwMDIgNDMzOTk4OTAzMSYwJAYDVQQDDB1DZXJ0
aW5vbWlzIC0gQXV0b3JpdMOpIFJhY2luZTCCAiIwDQYJKoZIhvcNAQEBBQADggIP
ADCCAgoCggIBAJ2Fn4bT46/HsmtuM+Cet0I0VZ35gb5j2CN2DpdUzZlMGvE5x4jY
F1AMnmHawE5V3udauHpOd4cN5bjr+p5eex7Ezyh0x5P1FMYiKAT5kcOrJ3NqDi5N
8y4oH3DfVS9O7cdxbwlyLu3VMpfQ8Vh30WC8Tl7bmoT2R2FFK/ZQpn9qcSdIhDWe
rP5pqZ56XjUl+rSnSTV3lqc2W+HN3yNw2F1MpQiD8aYkOBOo7C+ooWfHpi2GR+6K
/OybDnT0K0kCe5B1jPyZOQE51kqJ5Z52qz6WKDgmi92NjMD2AR5vpTESOH2VwnHu
7XSu5DaiQ3XV8QCb4uTXzEIDS3h65X27uK4uIJPT5GHfceF2Z5c/tt9qc1pkIuVC
28+BA5PY9OMQ4HL2AHCs8MF6DwV/zzRpRbWT5BnbUhYjBYkOjUjkJW+zeL9i9Qf6
lSTClrLooyPCXQP8w9PlfMl1I9f09bze5N/NgL+RiH2nE7Q5uiy6vdFrzPOlKO1E
nn1So2+WLhl+HPNbxxaOu2B9d2ZHVIIAEWBsMsGoOBvrbpgT1u449fCfDu/+MYHB
0iSVL1N6aaLwD4ZFjliCK0wi1F6g530mJ0jfJUaNSih8hp75mxpZuWW/Bd22Ql09
5gBIgl4g9xGC3srYn+Y3RyYe63j3YcNBZFgCQfna4NH4+ej9Uji29YnfAgMBAAGj
WzBZMA8GA1UdEwEB/wQFMAMBAf8wDgYDVR0PAQH/BAQDAgEGMB0GA1UdDgQWBBQN
jLZh2kS40RR9w759XkjwzspqsDAXBgNVHSAEEDAOMAwGCiqBegFWAgIAAQEwDQYJ
KoZIhvcNAQEFBQADggIBACQ+YAZ+He86PtvqrxyaLAEL9MW12Ukx9F1BjYkMTv9s
ov3/4gbIOZ/xWqndIlgVqIrTseYyCYIDbNc/CMf4uboAbbnW/FIyXaR/pDGUu7ZM
OH8oMDX/nyNTt7buFHAAQCvaR6s0fl6nVjBhK4tDrP22iCj1a7Y+YEq6QpA0Z43q
619FVDsXrIvkxmUP7tCMXWY5zjKn2BCXwH40nJ+U8/aGH88bc62UeYdocMMzpXDn
2NU4lG9jeeu/Cg4I58UvD0KgKxRA/yHgBcUn4YQRE7rWhh1BCxMjidPJC+iKunqj
o3M3NYB9Ergzd0A4wPpeMNLytqOx1qKVl4GbUu1pTP+A5FPbVFsDbVRfsbjvJL1v
nxHDx2TCDyhihWZeGnuyt++uNckZM6i4J9szVb9o4XVIRFb7zdNIu0eJOqxp9YDG
5ERQL1TEqkPFMTFYvZbF6nVsmnWxTfj3l/+WFvKXTej28xH5On2KOG4Ey+HTRRWq
pdEdnV1j6CTmNhTih60bWfVEm/vXd3wfAXBioSAaosUaKPQhA+4u2cGA6rnZgtZb
dsLLO7XSAPCjDuGtbkD326C00EauFddEwk01+dIL8hf2rGbVJLJP0RyZwG71fet0
BLj5TXcJ17TPBzAJ8bgAVtkXFhYKK4bfjwEZGuW7gmP/vgt2Fl43N+bYdJeimUV5
-----END CERTIFICATE-----
Certificate:
    Data:
        Version: 3 (0x2)
        Serial Number: 1 (0x1)
    Signature Algorithm: sha1WithRSAEncryption
        Issuer: C=FR, O=Certinomis, OU=0002 433998903, CN=Certinomis - Autorit\xC3\xA9 Racine
        Validity
            Not Before: Sep 17 08:28:59 2008 GMT
            Not After : Sep 17 08:28:59 2028 GMT
        Subject: C=FR, O=Certinomis, OU=0002 433998903, CN=Certinomis - Autorit\xC3\xA9 Racine
        Subject Public Key Info:
            Public Key Algorithm: rsaEncryption
                Public-Key: (4096 bit)
                Modulus:
                    00:9d:85:9f:86:d3:e3:af:c7:b2:6b:6e:33:e0:9e:
                    b7:42:34:55:9d:f9:81:be:63:d8:23:76:0e:97:54:
                    cd:99:4c:1a:f1:39:c7:88:d8:17:50:0c:9e:61:da:
                    c0:4e:55:de:e7:5a:b8:7a:4e:77:87:0d:e5:b8:eb:
                    fa:9e:5e:7b:1e:c4:cf:28:74:c7:93:f5:14:c6:22:
                    28:04:f9:91:c3:ab:27:73:6a:0e:2e:4d:f3:2e:28:
                    1f:70:df:55:2f:4e:ed:c7:71:6f:09:72:2e:ed:d5:
                    32:97:d0:f1:58:77:d1:60:bc:4e:5e:db:9a:84:f6:
                    47:61:45:2b:f6:50:a6:7f:6a:71:27:48:84:35:9e:
                    ac:fe:69:a9:9e:7a:5e:35:25:fa:b4:a7:49:35:77:
                    96:a7:36:5b:e1:cd:df:23:70:d8:5d:4c:a5:08:83:
                    f1:a6:24:38:13:a8:ec:2f:a8:a1:67:c7:a6:2d:86:
                    47:ee:8a:fc:ec:9b:0e:74:f4:2b:49:02:7b:90:75:
                    8c:fc:99:39:01:39:d6:4a:89:e5:9e:76:ab:3e:96:
                    28:38:26:8b:dd:8d:8c:c0:f6:01:1e:6f:a5:31:12:
                    38:7d:95:c2:71:ee:ed:74:ae:e4:36:a2:43:75:d5:
                    f1:00:9b:e2:e4:d7:cc:42:03:4b:78:7a:e5:7d:bb:
                    b8:ae:2e:20:93:d3:e4:61:df:71:e1:76:67:97:3f:
                    b6:df:6a:73:5a:64:22:e5:42:db:cf:81:03:93:d8:
                    f4:e3:10:e0:72:f6:00:70:ac:f0:c1:7a:0f:05:7f:
                    cf:34:69:45:b5:93:e4:19:db:52:16:23:05:89:0e:
                    8d:48:e4:25:6f:b3:78:bf:62:f5:07:fa:95:24:c2:
                    96:b2:e8:a3:23:c2:5d:03:fc:c3:d3:e5:7c:c9:75:
                    23:d7:f4:f5:bc:de:e4:df:cd:80:bf:91:88:7d:a7:
                    13:b4:39:ba:2c:ba:bd:d1:6b:cc:f3:a5:28:ed:44:
                    9e:7d:52:a3:6f:96:2e:19:7e:1c:f3:5b:c7:16:8e:
                    bb:60:7d:77:66:47:54:82:00:11:60:6c:32:c1:a8:
                    38:1b:eb:6e:98:13:d6:ee:38:f5:f0:9f:0e:ef:fe:
                    31:81:c1:d2:24:95:2f:53:7a:69:a2:f0:0f:86:45:
                    8e:58:82:2b:4c:22:d4:5e:a0:e7:7d:26:27:48:df:
                    25:46:8d:4a:28:7c:86:9e:f9:9b:1a:59:b9:65:bf:
                    05:dd:b6:42:5d:3d:e6:00:48:82:5e:20:f7:11:82:
                    de:ca:d8:9f:e6:37:47:26:1e:eb:78:f7:61:c3:41:
                    64:58:02:41:f9:da:e0:d1:f8:f9:e8:fd:52:38:b6:
                    f5:89:df
                Exponent: 65537 (0x10001)
        X509v3 extensions:
            X509v3 Basic Constraints: critical
                CA:TRUE
            X509v3 Key Usage: critical
                Certificate Sign, CRL Sign
            X509v3 Subject Key Identifier: 
                0D:8C:B6:61:DA:44:B8:D1:14:7D:C3:BE:7D:5E:48:F0:CE:CA:6A:B0
            X509v3 Certificate Policies: 
                Policy: 1.2.250.1.86.2.2.0.1.1

    Signature Algorithm: sha1WithRSAEncryption
         24:3e:60:06:7e:1d:ef:3a:3e:db:ea:af:1c:9a:2c:01:0b:f4:
         c5:b5:d9:49:31:f4:5d:41:8d:89:0c:4e:ff:6c:a2:fd:ff:e2:
         06:c8:39:9f:f1:5a:a9:dd:22:58:15:a8:8a:d3:b1:e6:32:09:
         82:03:6c:d7:3f:08:c7:f8:b9:ba:00:6d:b9:d6:fc:52:32:5d:
         a4:7f:a4:31:94:bb:b6:4c:38:7f:28:30:35:ff:9f:23:53:b7:
         b6:ee:14:70:00:40:2b:da:47:ab:34:7e:5e:a7:56:30:61:2b:
         8b:43:ac:fd:b6:88:28:f5:6b:b6:3e:60:4a:ba:42:90:34:67:
         8d:ea:eb:5f:45:54:3b:17:ac:8b:e4:c6:65:0f:ee:d0:8c:5d:
         66:39:ce:32:a7:d8:10:97:c0:7e:34:9c:9f:94:f3:f6:86:1f:
         cf:1b:73:ad:94:79:87:68:70:c3:33:a5:70:e7:d8:d5:38:94:
         6f:63:79:eb:bf:0a:0e:08:e7:c5:2f:0f:42:a0:2b:14:40:ff:
         21:e0:05:c5:27:e1:84:11:13:ba:d6:86:1d:41:0b:13:23:89:
         d3:c9:0b:e8:8a:ba:7a:a3:a3:73:37:35:80:7d:12:b8:33:77:
         40:38:c0:fa:5e:30:d2:f2:b6:a3:b1:d6:a2:95:97:81:9b:52:
         ed:69:4c:ff:80:e4:53:db:54:5b:03:6d:54:5f:b1:b8:ef:24:
         bd:6f:9f:11:c3:c7:64:c2:0f:28:62:85:66:5e:1a:7b:b2:b7:
         ef:ae:35:c9:19:33:a8:b8:27:db:33:55:bf:68:e1:75:48:44:
         56:fb:cd:d3:48:bb:47:89:3a:ac:69:f5:80:c6:e4:44:50:2f:
         54:c4:aa:43:c5:31:31:58:bd:96:c5:ea:75:6c:9a:75:b1:4d:
         f8:f7:97:ff:96:16:f2:97:4d:e8:f6:f3:11:f9:3a:7d:8a:38:
         6e:04:cb:e1:d3:45:15:aa:a5:d1:1d:9d:5d:63:e8:24:e6:36:
         14:e2:87:ad:1b:59:f5:44:9b:fb:d7:77:7c:1f:01:70:62:a1:
         20:1a:a2:c5:1a:28:f4:21:03:ee:2e:d9:c1:80:ea:b9:d9:82:
         d6:5b:76:c2:cb:3b:b5:d2:00:f0:a3:0e:e1:ad:6e:40:f7:db:
         a0:b4:d0:46:ae:15:d7:44:c2:4d:35:f9:d2:0b:f2:17:f6:ac:
         66:d5:24:b2:4f:d1:1c:99:c0:6e:f5:7d:eb:74:04:b8:f9:4d:
         77:09:d7:b4:cf:07:30:09:f1:b8:00:56:d9:17:16:16:0a:2b:
         86:df:8f:01:19:1a:e5:bb:82:63:ff:be:0b:76:16:5e:37:37:
         e6:d8:74:97:a2:99:45:79
SHA1 Fingerprint=2E:14:DA:EC:28:F0:FA:1E:8E:38:9A:4E:AB:EB:26:C0:0A:D3:83:C3
